; Function Attrs: nounwind uwtable
define void @Ccf_ManStop(ptr noundef %0) local_unnamed_addr #0 {
  %2 = getelementptr inbounds nuw i8, ptr %0, i64 40
  %3 = load ptr, ptr %2, align 8, !tbaa !26
  %4 = getelementptr inbounds nuw i8, ptr %3, i64 8
  %5 = load ptr, ptr %4, align 8, !tbaa !25
  %.not.i = icmp eq ptr %5, null
  br i1 %.not.i, label %7, label %6

6:                                                ; preds = %1
  tail call void @free(ptr noundef nonnull %5) #17
  br label %7

7:                                                ; preds = %1, %6
  tail call void @free(ptr noundef nonnull %3) #17
  %8 = getelementptr inbounds nuw i8, ptr %0, i64 24
  %9 = load ptr, ptr %8, align 8, !tbaa !20
  tail call void @Gia_ManUnrollStop(ptr noundef %9) #17
  %10 = getelementptr inbounds nuw i8, ptr %0, i64 48
  %11 = load ptr, ptr %10, align 8, !tbaa !27
  tail call void @sat_solver_delete(ptr noundef %11) #17
  %12 = getelementptr inbounds nuw i8, ptr %0, i64 32
  tail call void @Gia_ManStopP(ptr noundef nonnull %12) #17
  tail call void @free(ptr noundef nonnull %0) #17
  ret void
}